; Function Attrs: nounwind uwtable
define ptr @l_Lake_toUpperCamelCase(ptr noundef %0) local_unnamed_addr #0 {
  %2 = ptrtoint ptr %0 to i64
  %3 = and i64 %2, 1
  %.not.i = icmp eq i64 %3, 0
  br i1 %.not.i, label %lean_obj_tag.exit.thread, label %lean_obj_tag.exit

lean_obj_tag.exit:                                ; preds = %1
  %4 = and i64 %2, 8589934590
  %5 = icmp eq i64 %4, 2
  br i1 %5, label %8, label %lean_inc.exit

lean_obj_tag.exit.thread:                         ; preds = %1
  %6 = getelementptr i8, ptr %0, i64 4
  %.val.i = load i32, ptr %6, align 4
  %.mask = and i32 %.val.i, -16777216
  %7 = icmp eq i32 %.mask, 16777216
  br i1 %7, label %8, label %.thread

8:                                                ; preds = %lean_obj_tag.exit.thread, %lean_obj_tag.exit
  %9 = getelementptr inbounds nuw i8, ptr %0, i64 8
  %10 = load ptr, ptr %9, align 8, !tbaa !12
  %11 = getelementptr inbounds nuw i8, ptr %0, i64 16
  %12 = load ptr, ptr %11, align 8, !tbaa !12
  %13 = tail call ptr @l_Lake_toUpperCamelCase(ptr noundef %10)
  %14 = tail call ptr @l_String_splitAux___at_Lake_toUpperCamelCaseString___spec__2(ptr noundef %12, ptr noundef nonnull inttoptr (i64 1 to ptr), ptr noundef nonnull inttoptr (i64 1 to ptr), ptr noundef nonnull inttoptr (i64 1 to ptr))
  %15 = tail call ptr @l_List_mapTR_loop___at_Lake_toUpperCamelCaseString___spec__3(ptr noundef %14, ptr noundef nonnull inttoptr (i64 1 to ptr))
  %16 = load ptr, ptr @l_Lake_toUpperCamelCaseString___closed__1, align 8, !tbaa !12
  %17 = tail call ptr @l_List_foldl___at_String_join___spec__1(ptr noundef %16, ptr noundef %15) #3
  %18 = ptrtoint ptr %15 to i64
  %19 = and i64 %18, 1
  %.not.i11 = icmp eq i64 %19, 0
  br i1 %.not.i11, label %20, label %l_Lake_toUpperCamelCaseString.exit

20:                                               ; preds = %8
  %21 = load i32, ptr %15, align 4, !tbaa !8
  %22 = icmp sgt i32 %21, 1
  br i1 %22, label %23, label %25, !prof !11

23:                                               ; preds = %20
  %24 = add nsw i32 %21, -1
  store i32 %24, ptr %15, align 4, !tbaa !8
  br label %l_Lake_toUpperCamelCaseString.exit

25:                                               ; preds = %20
  %.not.i.i = icmp eq i32 %21, 0
  br i1 %.not.i.i, label %l_Lake_toUpperCamelCaseString.exit, label %26

26:                                               ; preds = %25
  tail call void @lean_dec_ref_cold(ptr noundef nonnull %15) #3
  br label %l_Lake_toUpperCamelCaseString.exit

l_Lake_toUpperCamelCaseString.exit:               ; preds = %8, %23, %25, %26
  %27 = tail call ptr @l_Lean_Name_str___override(ptr noundef %13, ptr noundef %17) #3
  br label %lean_inc.exit

.thread:                                          ; preds = %lean_obj_tag.exit.thread
  %.val.i12 = load i32, ptr %0, align 4, !tbaa !8
  %28 = icmp sgt i32 %.val.i12, 0
  br i1 %28, label %29, label %31, !prof !11

29:                                               ; preds = %.thread
  %30 = add nuw i32 %.val.i12, 1
  store i32 %30, ptr %0, align 4, !tbaa !8
  br label %lean_inc.exit

31:                                               ; preds = %.thread
  %.not.i13 = icmp eq i32 %.val.i12, 0
  br i1 %.not.i13, label %lean_inc.exit, label %32

32:                                               ; preds = %31
  tail call void @lean_inc_ref_cold(ptr noundef nonnull %0) #3
  br label %lean_inc.exit

lean_inc.exit:                                    ; preds = %lean_obj_tag.exit, %29, %31, %32, %l_Lake_toUpperCamelCaseString.exit
  %.0 = phi ptr [ %27, %l_Lake_toUpperCamelCaseString.exit ], [ %0, %32 ], [ %0, %31 ], [ %0, %29 ], [ %0, %lean_obj_tag.exit ]
  ret ptr %.0
}